; Function Attrs: nounwind uwtable
define ptr @zend_std_get_constructor(ptr nocapture noundef readonly %0) #0 {
  %2 = getelementptr inbounds i8, ptr %0, i64 16
  %3 = load ptr, ptr %2, align 8
  %4 = getelementptr inbounds i8, ptr %3, i64 256
  %5 = load ptr, ptr %4, align 8
  %.not = icmp eq ptr %5, null
  br i1 %.not, label %zend_bad_constructor_call.exit, label %6

6:                                                ; preds = %1
  %7 = getelementptr inbounds i8, ptr %5, i64 4
  %8 = load i32, ptr %7, align 4
  %9 = and i32 %8, 1
  %.not18 = icmp eq i32 %9, 0
  br i1 %.not18, label %10, label %zend_bad_constructor_call.exit

10:                                               ; preds = %6
  %11 = load ptr, ptr getelementptr inbounds (%struct._zend_executor_globals, ptr @executor_globals, i64 0, i32 18), align 8
  %.not19 = icmp eq ptr %11, null
  br i1 %.not19, label %12, label %14

12:                                               ; preds = %10
  %13 = tail call ptr @zend_get_executed_scope() #15
  br label %14

14:                                               ; preds = %10, %12
  %.0 = phi ptr [ %13, %12 ], [ %11, %10 ]
  %15 = getelementptr inbounds i8, ptr %5, i64 16
  %16 = load ptr, ptr %15, align 8
  %.not20 = icmp eq ptr %16, %.0
  br i1 %.not20, label %zend_bad_constructor_call.exit, label %17

17:                                               ; preds = %14
  %18 = load i32, ptr %7, align 4
  %19 = and i32 %18, 4
  %.not21 = icmp eq i32 %19, 0
  br i1 %.not21, label %20, label %zend_check_protected.exit

20:                                               ; preds = %17
  %21 = getelementptr inbounds i8, ptr %5, i64 24
  %22 = load ptr, ptr %21, align 8
  %.not22 = icmp eq ptr %22, null
  br i1 %.not22, label %26, label %23

23:                                               ; preds = %20
  %24 = getelementptr inbounds i8, ptr %22, i64 16
  %25 = load ptr, ptr %24, align 8
  br label %26

26:                                               ; preds = %20, %23
  %27 = phi ptr [ %25, %23 ], [ %16, %20 ]
  %.not14.i = icmp eq ptr %27, null
  br i1 %.not14.i, label %.preheader.i, label %.lr.ph.i

.preheader.i:                                     ; preds = %29, %26
  %.not1216.i = icmp eq ptr %.0, null
  br i1 %.not1216.i, label %zend_check_protected.exit, label %.lr.ph18.i

.lr.ph.i:                                         ; preds = %26, %29
  %.015.i = phi ptr [ %31, %29 ], [ %27, %26 ]
  %28 = icmp eq ptr %.015.i, %.0
  br i1 %28, label %zend_bad_constructor_call.exit, label %29

29:                                               ; preds = %.lr.ph.i
  %30 = getelementptr inbounds i8, ptr %.015.i, i64 16
  %31 = load ptr, ptr %30, align 8
  %.not.i = icmp eq ptr %31, null
  br i1 %.not.i, label %.preheader.i, label %.lr.ph.i

.lr.ph18.i:                                       ; preds = %.preheader.i, %33
  %.01017.i = phi ptr [ %35, %33 ], [ %.0, %.preheader.i ]
  %32 = icmp eq ptr %.01017.i, %27
  br i1 %32, label %zend_bad_constructor_call.exit, label %33

33:                                               ; preds = %.lr.ph18.i
  %34 = getelementptr inbounds i8, ptr %.01017.i, i64 16
  %35 = load ptr, ptr %34, align 8
  %.not12.i = icmp eq ptr %35, null
  br i1 %.not12.i, label %zend_check_protected.exit, label %.lr.ph18.i

zend_check_protected.exit:                        ; preds = %33, %.preheader.i, %17
  %.not.i23 = icmp eq ptr %.0, null
  %36 = tail call ptr @zend_visibility_string(i32 noundef %18) #15
  %37 = load ptr, ptr %15, align 8
  %38 = getelementptr inbounds i8, ptr %37, i64 8
  %39 = load ptr, ptr %38, align 8
  %40 = getelementptr inbounds i8, ptr %39, i64 24
  %41 = getelementptr inbounds i8, ptr %5, i64 8
  %42 = load ptr, ptr %41, align 8
  %43 = getelementptr inbounds i8, ptr %42, i64 24
  br i1 %.not.i23, label %48, label %44

44:                                               ; preds = %zend_check_protected.exit
  %45 = getelementptr inbounds i8, ptr %.0, i64 8
  %46 = load ptr, ptr %45, align 8
  %47 = getelementptr inbounds i8, ptr %46, i64 24
  tail call void (ptr, ptr, ...) @zend_throw_error(ptr noundef null, ptr noundef nonnull @.str.28, ptr noundef %36, ptr noundef nonnull %40, ptr noundef nonnull %43, ptr noundef nonnull %47) #15
  br label %zend_bad_constructor_call.exit

48:                                               ; preds = %zend_check_protected.exit
  tail call void (ptr, ptr, ...) @zend_throw_error(ptr noundef null, ptr noundef nonnull @.str.29, ptr noundef %36, ptr noundef nonnull %40, ptr noundef nonnull %43) #15
  br label %zend_bad_constructor_call.exit

zend_bad_constructor_call.exit:                   ; preds = %.lr.ph.i, %.lr.ph18.i, %48, %44, %6, %14, %1
  %.013 = phi ptr [ %5, %14 ], [ %5, %6 ], [ null, %1 ], [ null, %44 ], [ null, %48 ], [ %5, %.lr.ph18.i ], [ %5, %.lr.ph.i ]
  ret ptr %.013
}